; Function Attrs: nofree norecurse nosync nounwind memory(readwrite, inaccessiblemem: none) uwtable
define i32 @ff_vvc_cu_chroma_qp_offset_idx(ptr noundef readonly captures(none) %0) local_unnamed_addr #3 {
  %2 = getelementptr inbounds nuw i8, ptr %0, i64 4580552
  %3 = load ptr, ptr %2, align 8, !tbaa !4
  %4 = getelementptr inbounds nuw i8, ptr %3, i64 1936
  %5 = load ptr, ptr %4, align 8, !tbaa !18
  %6 = load ptr, ptr %5, align 8, !tbaa !159
  %7 = getelementptr inbounds nuw i8, ptr %6, i64 1992111
  %8 = load i8, ptr %7, align 1, !tbaa !160
  %9 = zext i8 %8 to i32
  %.not12 = icmp eq i8 %8, 0
  br i1 %.not12, label %.critedge, label %.lr.ph

.lr.ph:                                           ; preds = %1
  %10 = getelementptr inbounds nuw i8, ptr %0, i64 4580560
  %11 = load ptr, ptr %10, align 16, !tbaa !67
  %12 = getelementptr inbounds nuw i8, ptr %11, i64 2672
  %13 = getelementptr inbounds nuw i8, ptr %11, i64 1270
  %14 = getelementptr inbounds nuw i8, ptr %11, i64 2676
  %15 = getelementptr inbounds nuw i8, ptr %11, i64 1272
  %16 = getelementptr inbounds nuw i8, ptr %11, i64 2688
  %17 = getelementptr inbounds nuw i8, ptr %11, i64 2696
  %18 = getelementptr inbounds nuw i8, ptr %11, i64 1274
  %19 = getelementptr inbounds nuw i8, ptr %11, i64 1275
  %.promoted = load i32, ptr %14, align 4, !tbaa !100
  %.promoted9 = load i16, ptr %15, align 2, !tbaa !58
  %.promoted10 = load i16, ptr %13, align 2, !tbaa !58
  %.promoted11 = load i32, ptr %12, align 8, !tbaa !70
  br label %20

20:                                               ; preds = %.lr.ph, %94
  %21 = phi i32 [ %.promoted11, %.lr.ph ], [ %74, %94 ]
  %22 = phi i16 [ %.promoted10, %.lr.ph ], [ %85, %94 ]
  %23 = phi i16 [ %.promoted9, %.lr.ph ], [ %93, %94 ]
  %24 = phi i32 [ %.promoted, %.lr.ph ], [ %46, %94 ]
  %.07 = phi i32 [ 0, %.lr.ph ], [ %95, %94 ]
  %25 = ashr i32 %24, 5
  %26 = zext i16 %23 to i32
  %27 = zext i16 %22 to i32
  %28 = shl nuw nsw i32 %27, 4
  %29 = add nuw nsw i32 %28, %26
  %.not.i = icmp samesign ult i32 %29, 16384
  %30 = sub nsw i32 32767, %29
  %31 = select i1 %.not.i, i32 %29, i32 %30
  %32 = ashr i32 %31, 9
  %33 = mul nsw i32 %32, %25
  %34 = ashr i32 %33, 1
  %35 = add nsw i32 %34, 4
  %36 = sub nsw i32 %24, %35
  %37 = shl i32 %36, 17
  %38 = icmp slt i32 %37, %21
  %39 = select i1 %38, i32 %37, i32 0
  %40 = sub nsw i32 %21, %39
  %41 = select i1 %38, i32 %35, i32 %36
  %42 = sext i32 %41 to i64
  %43 = getelementptr inbounds i8, ptr @ff_h264_cabac_tables, i64 %42
  %44 = load i8, ptr %43, align 1, !tbaa !97
  %45 = zext i8 %44 to i32
  %46 = shl i32 %41, %45
  store i32 %46, ptr %14, align 4, !tbaa !100
  %47 = shl i32 %40, %45
  store i32 %47, ptr %12, align 8, !tbaa !70
  %48 = and i32 %47, 65535
  %.not42.i = icmp eq i32 %48, 0
  br i1 %.not42.i, label %49, label %vvc_get_cabac.exit

49:                                               ; preds = %20
  %50 = add nsw i32 %47, -1
  %51 = xor i32 %50, %47
  %52 = lshr i32 %51, 15
  %53 = zext nneg i32 %52 to i64
  %54 = getelementptr inbounds nuw i8, ptr @ff_h264_cabac_tables, i64 %53
  %55 = load i8, ptr %54, align 1, !tbaa !97
  %56 = zext i8 %55 to i32
  %57 = sub nsw i32 7, %56
  %58 = load ptr, ptr %16, align 8, !tbaa !68
  %59 = load i8, ptr %58, align 1, !tbaa !97
  %60 = zext i8 %59 to i32
  %61 = shl nuw nsw i32 %60, 9
  %62 = getelementptr inbounds nuw i8, ptr %58, i64 1
  %63 = load i8, ptr %62, align 1, !tbaa !97
  %64 = zext i8 %63 to i32
  %65 = shl nuw nsw i32 %64, 1
  %66 = or disjoint i32 %65, %61
  %67 = add nsw i32 %66, -65535
  %68 = shl nsw i32 %67, %57
  %69 = add i32 %68, %47
  store i32 %69, ptr %12, align 8, !tbaa !70
  %70 = load ptr, ptr %17, align 8, !tbaa !71
  %71 = icmp ult ptr %58, %70
  br i1 %71, label %72, label %vvc_get_cabac.exit

72:                                               ; preds = %49
  %73 = getelementptr inbounds nuw i8, ptr %58, i64 2
  store ptr %73, ptr %16, align 8, !tbaa !68
  br label %vvc_get_cabac.exit

vvc_get_cabac.exit:                               ; preds = %20, %49, %72
  %74 = phi i32 [ %47, %20 ], [ %69, %49 ], [ %69, %72 ]
  %75 = lshr i32 %29, 14
  %76 = zext i1 %38 to i32
  %77 = xor i32 %75, %76
  %78 = load i8, ptr %18, align 2, !tbaa !97
  %79 = zext i8 %78 to i32
  %80 = lshr i32 %27, %79
  %81 = sub nsw i32 %27, %80
  %82 = mul nuw nsw i32 %77, 1023
  %83 = lshr i32 %82, %79
  %84 = add nsw i32 %81, %83
  %85 = trunc i32 %84 to i16
  store i16 %85, ptr %13, align 2, !tbaa !58
  %86 = load i8, ptr %19, align 1, !tbaa !97
  %87 = zext i8 %86 to i32
  %88 = lshr i32 %26, %87
  %89 = sub nsw i32 %26, %88
  %90 = mul nuw nsw i32 %77, 16383
  %91 = lshr i32 %90, %87
  %92 = add nsw i32 %89, %91
  %93 = trunc i32 %92 to i16
  store i16 %93, ptr %15, align 2, !tbaa !58
  %.not = icmp eq i32 %75, %76
  br i1 %.not, label %.critedge, label %94

94:                                               ; preds = %vvc_get_cabac.exit
  %95 = add nuw nsw i32 %.07, 1
  %exitcond.not = icmp eq i32 %95, %9
  br i1 %exitcond.not, label %.critedge, label %20, !llvm.loop !162

.critedge:                                        ; preds = %vvc_get_cabac.exit, %94, %1
  %.0.lcssa = phi i32 [ 0, %1 ], [ %9, %94 ], [ %.07, %vvc_get_cabac.exit ]
  ret i32 %.0.lcssa
}